target datalayout = "e-m:e-p270:32:32-p271:32:32-p272:64:64-i64:64-i128:128-f80:128-n8:16:32:64-S128"
target triple = "x86_64-pc-linux-gnu"

; Function Attrs: nounwind uwtable
define internal i32 @pkey_has_private(ptr noundef %0, ptr noundef %1, i32 noundef %2) #0 {
  %4 = alloca ptr, align 8
  %5 = alloca ptr, align 8
  %6 = alloca i32, align 4
  %7 = alloca i32, align 4
  %8 = alloca [64 x i8], align 16
  %9 = alloca ptr, align 8
  store ptr %0, ptr %4, align 8, !tbaa !13
  store ptr %1, ptr %5, align 8, !tbaa !21
  store i32 %2, ptr %6, align 4, !tbaa !11
  call void @llvm.lifetime.start.p0(i64 4, ptr %7) #7
  store i32 0, ptr %7, align 4, !tbaa !11
  %10 = load i32, ptr %6, align 4, !tbaa !11
  %11 = icmp ne i32 %10, 0
  br i1 %11, label %12, label %17

12:                                               ; preds = %3
  call void @llvm.lifetime.start.p0(i64 64, ptr %8) #7
  %13 = load ptr, ptr %4, align 8, !tbaa !13
  %14 = load ptr, ptr %5, align 8, !tbaa !21
  %15 = getelementptr inbounds [64 x i8], ptr %8, i64 0, i64 0
  %16 = call i32 @EVP_PKEY_get_octet_string_param(ptr noundef %13, ptr noundef %14, ptr noundef %15, i64 noundef 64, ptr noundef null)
  store i32 %16, ptr %7, align 4, !tbaa !11
  call void @llvm.lifetime.end.p0(i64 64, ptr %8) #7
  br label %22

17:                                               ; preds = %3
  call void @llvm.lifetime.start.p0(i64 8, ptr %9) #7
  store ptr null, ptr %9, align 8, !tbaa !25
  %18 = load ptr, ptr %4, align 8, !tbaa !13
  %19 = load ptr, ptr %5, align 8, !tbaa !21
  %20 = call i32 @EVP_PKEY_get_bn_param(ptr noundef %18, ptr noundef %19, ptr noundef %9)
  store i32 %20, ptr %7, align 4, !tbaa !11
  %21 = load ptr, ptr %9, align 8, !tbaa !25
  call void @BN_free(ptr noundef %21)
  call void @llvm.lifetime.end.p0(i64 8, ptr %9) #7
  br label %22

22:                                               ; preds = %17, %12
  %23 = load i32, ptr %7, align 4, !tbaa !11
  call void @llvm.lifetime.end.p0(i64 4, ptr %7) #7
  ret i32 %23
}