; Function Attrs: nounwind uwtable
define internal fastcc i32 @pkey_has_private(ptr noundef %0, ptr noundef %1, i32 noundef range(i32 0, 2) %2) unnamed_addr #0 {
  %4 = alloca [64 x i8], align 16
  %5 = alloca ptr, align 8
  %.not = icmp eq i32 %2, 0
  br i1 %.not, label %8, label %6

6:                                                ; preds = %3
  call void @llvm.lifetime.start.p0(i64 64, ptr nonnull %4) #7
  %7 = call i32 @EVP_PKEY_get_octet_string_param(ptr noundef %0, ptr noundef %1, ptr noundef nonnull %4, i64 noundef 64, ptr noundef null) #7
  call void @llvm.lifetime.end.p0(i64 64, ptr nonnull %4) #7
  br label %11

8:                                                ; preds = %3
  call void @llvm.lifetime.start.p0(i64 8, ptr nonnull %5) #7
  store ptr null, ptr %5, align 8, !tbaa !16
  %9 = call i32 @EVP_PKEY_get_bn_param(ptr noundef %0, ptr noundef %1, ptr noundef nonnull %5) #7
  %10 = load ptr, ptr %5, align 8, !tbaa !16
  call void @BN_free(ptr noundef %10) #7
  call void @llvm.lifetime.end.p0(i64 8, ptr nonnull %5) #7
  br label %11

11:                                               ; preds = %8, %6
  %.0 = phi i32 [ %7, %6 ], [ %9, %8 ]
  ret i32 %.0
}